target datalayout = "e-m:e-p270:32:32-p271:32:32-p272:64:64-i64:64-i128:128-f80:128-n8:16:32:64-S128"
target triple = "x86_64-unknown-linux-gnu"

%"class.icu_75::CharStringByteSink" = type { %"class.icu_75::ByteSink", ptr }
%"class.icu_75::ByteSink" = type { ptr }

; Function Attrs: mustprogress uwtable
define void @_ZN6icu_7518CharStringByteSink6AppendEPKci(ptr noundef nonnull align 8 dereferenceable(16) %this, ptr noundef %bytes, i32 noundef %n) unnamed_addr #1 align 2 {
entry:
  %this.addr = alloca ptr, align 8
  %bytes.addr = alloca ptr, align 8
  %n.addr = alloca i32, align 4
  %status = alloca i32, align 4
  store ptr %this, ptr %this.addr, align 8
  store ptr %bytes, ptr %bytes.addr, align 8
  store i32 %n, ptr %n.addr, align 4
  %this1 = load ptr, ptr %this.addr, align 8
  store i32 0, ptr %status, align 4
  %dest_ = getelementptr inbounds %"class.icu_75::CharStringByteSink", ptr %this1, i32 0, i32 1
  %0 = load ptr, ptr %dest_, align 8
  %1 = load ptr, ptr %bytes.addr, align 8
  %2 = load i32, ptr %n.addr, align 4
  %call = call noundef nonnull align 8 dereferenceable(60) ptr @_ZN6icu_7510CharString6appendEPKciR10UErrorCode(ptr noundef nonnull align 8 dereferenceable(60) %0, ptr noundef %1, i32 noundef %2, ptr noundef nonnull align 4 dereferenceable(4) %status)
  ret void
}