; Function Attrs: mustprogress uwtable
define void @_ZN6icu_7518CharStringByteSink6AppendEPKci(ptr nocapture noundef nonnull readonly align 8 dereferenceable(16) %this, ptr noundef %bytes, i32 noundef %n) unnamed_addr #1 align 2 {
entry:
  %status = alloca i32, align 4
  store i32 0, ptr %status, align 4
  %dest_ = getelementptr inbounds i8, ptr %this, i64 8
  %0 = load ptr, ptr %dest_, align 8
  %call = call noundef nonnull align 8 dereferenceable(60) ptr @_ZN6icu_7510CharString6appendEPKciR10UErrorCode(ptr noundef nonnull align 8 dereferenceable(60) %0, ptr noundef %bytes, i32 noundef %n, ptr noundef nonnull align 4 dereferenceable(4) %status)
  ret void
}